; Function Attrs: noreturn nounwind uwtable
define noalias noundef nonnull ptr @Cmd_RunAutoTunerEvalWorkerThread(ptr noundef %0) #5 {
  %2 = getelementptr inbounds nuw i8, ptr %0, i64 24
  %3 = getelementptr inbounds nuw i8, ptr %0, i64 8
  %4 = getelementptr inbounds nuw i8, ptr %0, i64 28
  br label %5

5:                                                ; preds = %.backedge, %1
  %6 = load volatile i32, ptr %2, align 4, !tbaa !21
  %7 = icmp eq i32 %6, 0
  br i1 %7, label %.backedge, label %8

.backedge:                                        ; preds = %5, %12
  br label %5, !llvm.loop !22

8:                                                ; preds = %5
  %9 = load ptr, ptr %0, align 8, !tbaa !23
  %10 = icmp eq ptr %9, null
  br i1 %10, label %11, label %12

11:                                               ; preds = %8
  tail call void @pthread_exit(ptr noundef null) #23
  unreachable

12:                                               ; preds = %8
  %13 = load ptr, ptr %3, align 8, !tbaa !27
  %14 = tail call i32 @Gia_ManSatokoCallOne(ptr noundef nonnull %9, ptr noundef %13, i32 noundef -1) #22
  store i32 %14, ptr %4, align 4, !tbaa !28
  store i32 0, ptr %2, align 8, !tbaa !29
  br label %.backedge
}